; Function Attrs: uwtable
define dso_local void @_ZTv0_n40_N10cmDebugger26cmDebuggerPipeClient_POSIX5closeEv(ptr noundef %0) unnamed_addr #9 align 2 {
  %2 = load ptr, ptr %0, align 8
  %3 = getelementptr inbounds i8, ptr %2, i64 -40
  %4 = load i64, ptr %3, align 8
  %5 = getelementptr inbounds i8, ptr %0, i64 %4
  %6 = load ptr, ptr %5, align 8
  %7 = getelementptr inbounds i8, ptr %6, i64 16
  %8 = load ptr, ptr %7, align 8
  %9 = tail call noundef zeroext i1 %8(ptr noundef nonnull align 8 dereferenceable(68) %5)
  br i1 %9, label %10, label %_ZN10cmDebugger26cmDebuggerPipeClient_POSIX5closeEv.exit

10:                                               ; preds = %1
  %11 = getelementptr inbounds i8, ptr %5, i64 64
  %12 = load i32, ptr %11, align 8
  %13 = tail call i32 @close(i32 noundef %12)
  store i32 -1, ptr %11, align 8
  br label %_ZN10cmDebugger26cmDebuggerPipeClient_POSIX5closeEv.exit

_ZN10cmDebugger26cmDebuggerPipeClient_POSIX5closeEv.exit: ; preds = %1, %10
  ret void
}